target datalayout = "e-m:e-p270:32:32-p271:32:32-p272:64:64-i64:64-i128:128-f80:128-n8:16:32:64-S128"
target triple = "x86_64-pc-linux-gnu"

; Function Attrs: nounwind uwtable
define internal void @premultiply16yuv(ptr noundef %0, ptr noundef %1, ptr noundef %2, i64 noundef %3, i64 noundef %4, i64 noundef %5, i32 noundef %6, i32 noundef %7, i32 noundef %8, i32 noundef %9, i32 noundef %10) #1 {
  %12 = alloca ptr, align 8
  %13 = alloca ptr, align 8
  %14 = alloca ptr, align 8
  %15 = alloca i64, align 8
  %16 = alloca i64, align 8
  %17 = alloca i64, align 8
  %18 = alloca i32, align 4
  %19 = alloca i32, align 4
  %20 = alloca i32, align 4
  %21 = alloca i32, align 4
  %22 = alloca i32, align 4
  %23 = alloca ptr, align 8
  %24 = alloca ptr, align 8
  %25 = alloca ptr, align 8
  %26 = alloca i32, align 4
  %27 = alloca i32, align 4
  store ptr %0, ptr %12, align 8, !tbaa !91
  store ptr %1, ptr %13, align 8, !tbaa !91
  store ptr %2, ptr %14, align 8, !tbaa !91
  store i64 %3, ptr %15, align 8, !tbaa !50
  store i64 %4, ptr %16, align 8, !tbaa !50
  store i64 %5, ptr %17, align 8, !tbaa !50
  store i32 %6, ptr %18, align 4, !tbaa !37
  store i32 %7, ptr %19, align 4, !tbaa !37
  store i32 %8, ptr %20, align 4, !tbaa !37
  store i32 %9, ptr %21, align 4, !tbaa !37
  store i32 %10, ptr %22, align 4, !tbaa !37
  call void @llvm.lifetime.start.p0(i64 8, ptr %23) #11
  %28 = load ptr, ptr %12, align 8, !tbaa !91
  store ptr %28, ptr %23, align 8, !tbaa !99
  call void @llvm.lifetime.start.p0(i64 8, ptr %24) #11
  %29 = load ptr, ptr %13, align 8, !tbaa !91
  store ptr %29, ptr %24, align 8, !tbaa !99
  call void @llvm.lifetime.start.p0(i64 8, ptr %25) #11
  %30 = load ptr, ptr %14, align 8, !tbaa !91
  store ptr %30, ptr %25, align 8, !tbaa !99
  call void @llvm.lifetime.start.p0(i64 4, ptr %26) #11
  call void @llvm.lifetime.start.p0(i64 4, ptr %27) #11
  store i32 0, ptr %27, align 4, !tbaa !37
  br label %31

31:                                               ; preds = %94, %11
  %32 = load i32, ptr %27, align 4, !tbaa !37
  %33 = load i32, ptr %19, align 4, !tbaa !37
  %34 = icmp slt i32 %32, %33
  br i1 %34, label %35, label %97

35:                                               ; preds = %31
  store i32 0, ptr %26, align 4, !tbaa !37
  br label %36

36:                                               ; preds = %78, %35
  %37 = load i32, ptr %26, align 4, !tbaa !37
  %38 = load i32, ptr %18, align 4, !tbaa !37
  %39 = icmp slt i32 %37, %38
  br i1 %39, label %40, label %81

40:                                               ; preds = %36
  %41 = load ptr, ptr %23, align 8, !tbaa !99
  %42 = load i32, ptr %26, align 4, !tbaa !37
  %43 = sext i32 %42 to i64
  %44 = getelementptr inbounds i16, ptr %41, i64 %43
  %45 = load i16, ptr %44, align 2, !tbaa !101
  %46 = zext i16 %45 to i32
  %47 = load i32, ptr %20, align 4, !tbaa !37
  %48 = sub nsw i32 %46, %47
  %49 = sext i32 %48 to i64
  %50 = load ptr, ptr %24, align 8, !tbaa !99
  %51 = load i32, ptr %26, align 4, !tbaa !37
  %52 = sext i32 %51 to i64
  %53 = getelementptr inbounds i16, ptr %50, i64 %52
  %54 = load i16, ptr %53, align 2, !tbaa !101
  %55 = zext i16 %54 to i32
  %56 = ashr i32 %55, 1
  %57 = and i32 %56, 1
  %58 = load ptr, ptr %24, align 8, !tbaa !99
  %59 = load i32, ptr %26, align 4, !tbaa !37
  %60 = sext i32 %59 to i64
  %61 = getelementptr inbounds i16, ptr %58, i64 %60
  %62 = load i16, ptr %61, align 2, !tbaa !101
  %63 = zext i16 %62 to i32
  %64 = add nsw i32 %57, %63
  %65 = sext i32 %64 to i64
  %66 = mul nsw i64 %49, %65
  %67 = load i32, ptr %21, align 4, !tbaa !37
  %68 = zext i32 %67 to i64
  %69 = ashr i64 %66, %68
  %70 = load i32, ptr %20, align 4, !tbaa !37
  %71 = sext i32 %70 to i64
  %72 = add nsw i64 %69, %71
  %73 = trunc i64 %72 to i16
  %74 = load ptr, ptr %25, align 8, !tbaa !99
  %75 = load i32, ptr %26, align 4, !tbaa !37
  %76 = sext i32 %75 to i64
  %77 = getelementptr inbounds i16, ptr %74, i64 %76
  store i16 %73, ptr %77, align 2, !tbaa !101
  br label %78

78:                                               ; preds = %40
  %79 = load i32, ptr %26, align 4, !tbaa !37
  %80 = add nsw i32 %79, 1
  store i32 %80, ptr %26, align 4, !tbaa !37
  br label %36, !llvm.loop !127

81:                                               ; preds = %36
  %82 = load i64, ptr %17, align 8, !tbaa !50
  %83 = sdiv i64 %82, 2
  %84 = load ptr, ptr %25, align 8, !tbaa !99
  %85 = getelementptr inbounds i16, ptr %84, i64 %83
  store ptr %85, ptr %25, align 8, !tbaa !99
  %86 = load i64, ptr %15, align 8, !tbaa !50
  %87 = sdiv i64 %86, 2
  %88 = load ptr, ptr %23, align 8, !tbaa !99
  %89 = getelementptr inbounds i16, ptr %88, i64 %87
  store ptr %89, ptr %23, align 8, !tbaa !99
  %90 = load i64, ptr %16, align 8, !tbaa !50
  %91 = sdiv i64 %90, 2
  %92 = load ptr, ptr %24, align 8, !tbaa !99
  %93 = getelementptr inbounds i16, ptr %92, i64 %91
  store ptr %93, ptr %24, align 8, !tbaa !99
  br label %94

94:                                               ; preds = %81
  %95 = load i32, ptr %27, align 4, !tbaa !37
  %96 = add nsw i32 %95, 1
  store i32 %96, ptr %27, align 4, !tbaa !37
  br label %31, !llvm.loop !128

97:                                               ; preds = %31
  call void @llvm.lifetime.end.p0(i64 4, ptr %27) #11
  call void @llvm.lifetime.end.p0(i64 4, ptr %26) #11
  call void @llvm.lifetime.end.p0(i64 8, ptr %25) #11
  call void @llvm.lifetime.end.p0(i64 8, ptr %24) #11
  call void @llvm.lifetime.end.p0(i64 8, ptr %23) #11
  ret void
}