; Function Attrs: nofree norecurse nosync nounwind memory(argmem: readwrite) uwtable
define internal void @premultiply16yuv(ptr noundef readonly captures(none) %0, ptr noundef readonly captures(none) %1, ptr noundef writeonly captures(none) %2, i64 noundef %3, i64 noundef %4, i64 noundef %5, i32 noundef %6, i32 noundef %7, i32 noundef %8, i32 noundef %9, i32 %10) #5 {
  %12 = icmp sgt i32 %7, 0
  br i1 %12, label %.preheader.lr.ph, label %._crit_edge34

.preheader.lr.ph:                                 ; preds = %11
  %13 = icmp sgt i32 %6, 0
  %14 = zext nneg i32 %9 to i64
  %15 = zext i32 %8 to i64
  %16 = sdiv i64 %5, 2
  %17 = sdiv i64 %3, 2
  %18 = sdiv i64 %4, 2
  br i1 %13, label %.preheader.us.preheader, label %._crit_edge34

.preheader.us.preheader:                          ; preds = %.preheader.lr.ph
  %wide.trip.count = zext nneg i32 %6 to i64
  br label %.preheader.us

.preheader.us:                                    ; preds = %.preheader.us.preheader, %._crit_edge.us
  %.033.us = phi i32 [ %40, %._crit_edge.us ], [ 0, %.preheader.us.preheader ]
  %.02632.us = phi ptr [ %37, %._crit_edge.us ], [ %2, %.preheader.us.preheader ]
  %.02731.us = phi ptr [ %39, %._crit_edge.us ], [ %1, %.preheader.us.preheader ]
  %.02830.us = phi ptr [ %38, %._crit_edge.us ], [ %0, %.preheader.us.preheader ]
  br label %19

19:                                               ; preds = %.preheader.us, %19
  %indvars.iv = phi i64 [ 0, %.preheader.us ], [ %indvars.iv.next, %19 ]
  %20 = getelementptr inbounds nuw i16, ptr %.02830.us, i64 %indvars.iv
  %21 = load i16, ptr %20, align 2, !tbaa !85
  %22 = zext i16 %21 to i32
  %23 = sub nsw i32 %22, %8
  %24 = sext i32 %23 to i64
  %25 = getelementptr inbounds nuw i16, ptr %.02731.us, i64 %indvars.iv
  %26 = load i16, ptr %25, align 2, !tbaa !85
  %27 = zext i16 %26 to i32
  %28 = lshr i32 %27, 1
  %29 = and i32 %28, 1
  %30 = add nuw nsw i32 %29, %27
  %31 = zext nneg i32 %30 to i64
  %32 = mul nsw i64 %31, %24
  %33 = ashr i64 %32, %14
  %34 = add nsw i64 %33, %15
  %35 = trunc i64 %34 to i16
  %36 = getelementptr inbounds nuw i16, ptr %.02632.us, i64 %indvars.iv
  store i16 %35, ptr %36, align 2, !tbaa !85
  %indvars.iv.next = add nuw nsw i64 %indvars.iv, 1
  %exitcond.not = icmp eq i64 %indvars.iv.next, %wide.trip.count
  br i1 %exitcond.not, label %._crit_edge.us, label %19, !llvm.loop !109

._crit_edge.us:                                   ; preds = %19
  %37 = getelementptr inbounds i16, ptr %.02632.us, i64 %16
  %38 = getelementptr inbounds i16, ptr %.02830.us, i64 %17
  %39 = getelementptr inbounds i16, ptr %.02731.us, i64 %18
  %40 = add nuw nsw i32 %.033.us, 1
  %exitcond37.not = icmp eq i32 %40, %7
  br i1 %exitcond37.not, label %._crit_edge34, label %.preheader.us, !llvm.loop !110

._crit_edge34:                                    ; preds = %._crit_edge.us, %.preheader.lr.ph, %11
  ret void
}